target datalayout = "e-m:e-p270:32:32-p271:32:32-p272:64:64-i64:64-i128:128-f80:128-n8:16:32:64-S128"
target triple = "x86_64-pc-linux-gnu"

%class.mpz = type { i32, i8, ptr }
%class.svector.1 = type { %class.vector.2 }
%class.vector.2 = type { ptr }
%"class.upolynomial::core_manager" = type { ptr, %class.mpzzp_manager, %class.svector.1, %class.svector.1, %class.svector.1, %class.svector.1, %class.svector.1, %class.svector.1, %class.svector.1, [6 x %class.svector.1], %class.svector.1, %class.svector.1, %class.svector.1 }
%class.mpzzp_manager = type { ptr, i8, %class.mpz, %class.mpz, %class.mpz, i8, %class.mpz, %class.mpz, %class.mpz, %class.mpz }

; Function Attrs: mustprogress nounwind uwtable
define linkonce_odr hidden noundef i32 @_ZN11mpz_managerILb0EE4signERK3mpz(ptr noundef nonnull align 8 dereferenceable(16) %0) #5 comdat align 2 {
  %2 = alloca ptr, align 8
  store ptr %0, ptr %2, align 8, !tbaa !26
  %3 = load ptr, ptr %2, align 8, !tbaa !26
  %4 = getelementptr inbounds nuw %class.mpz, ptr %3, i32 0, i32 0
  %5 = load i32, ptr %4, align 8, !tbaa !28
  ret i32 %5
}

; Function Attrs: mustprogress uwtable
define linkonce_odr hidden noundef zeroext i1 @_ZN11mpz_managerILb0EE7is_zeroERK3mpz(ptr noundef nonnull align 8 dereferenceable(16) %0) #4 comdat align 2 {
  %2 = alloca ptr, align 8
  store ptr %0, ptr %2, align 8, !tbaa !26
  %3 = load ptr, ptr %2, align 8, !tbaa !26
  %4 = call noundef i32 @_ZN11mpz_managerILb0EE4signERK3mpz(ptr noundef nonnull align 8 dereferenceable(16) %3)
  %5 = icmp eq i32 %4, 0
  ret i1 %5
}

; Function Attrs: mustprogress nounwind uwtable
define linkonce_odr hidden noundef nonnull align 8 dereferenceable(600) ptr @_ZNK13mpzzp_manager1mEv(ptr noundef nonnull align 8 dereferenceable(136) %0) #5 comdat align 2 {
  %2 = alloca ptr, align 8
  store ptr %0, ptr %2, align 8, !tbaa !31
  %3 = load ptr, ptr %2, align 8
  %4 = getelementptr inbounds nuw %class.mpzzp_manager, ptr %3, i32 0, i32 0
  %5 = load ptr, ptr %4, align 8, !tbaa !119
  ret ptr %5
}

; Function Attrs: mustprogress nounwind uwtable
define linkonce_odr hidden noundef zeroext i1 @_ZN11mpz_managerILb0EE6is_posERK3mpz(ptr noundef nonnull align 8 dereferenceable(16) %0) #5 comdat align 2 {
  %2 = alloca ptr, align 8
  store ptr %0, ptr %2, align 8, !tbaa !26
  %3 = load ptr, ptr %2, align 8, !tbaa !26
  %4 = call noundef i32 @_ZN11mpz_managerILb0EE4signERK3mpz(ptr noundef nonnull align 8 dereferenceable(16) %3)
  %5 = icmp sgt i32 %4, 0
  ret i1 %5
}

; Function Attrs: mustprogress uwtable
define linkonce_odr hidden noundef zeroext i1 @_ZN13mpzzp_manager7is_zeroERK3mpz(ptr noundef nonnull align 8 dereferenceable(136) %0, ptr noundef nonnull align 8 dereferenceable(16) %1) #4 comdat align 2 {
  %3 = alloca ptr, align 8
  %4 = alloca ptr, align 8
  store ptr %0, ptr %3, align 8, !tbaa !31
  store ptr %1, ptr %4, align 8, !tbaa !26
  %5 = load ptr, ptr %4, align 8, !tbaa !26
  %6 = call noundef zeroext i1 @_ZN11mpz_managerILb0EE7is_zeroERK3mpz(ptr noundef nonnull align 8 dereferenceable(16) %5)
  ret i1 %6
}

; Function Attrs: mustprogress uwtable
define linkonce_odr hidden noundef i32 @_ZN13mpzzp_manager5mlog2ERK3mpz(ptr noundef nonnull align 8 dereferenceable(136) %0, ptr noundef nonnull align 8 dereferenceable(16) %1) #4 comdat align 2 {
  %3 = alloca ptr, align 8
  %4 = alloca ptr, align 8
  store ptr %0, ptr %3, align 8, !tbaa !31
  store ptr %1, ptr %4, align 8, !tbaa !26
  %5 = load ptr, ptr %3, align 8
  %6 = call noundef nonnull align 8 dereferenceable(600) ptr @_ZNK13mpzzp_manager1mEv(ptr noundef nonnull align 8 dereferenceable(136) %5)
  %7 = load ptr, ptr %4, align 8, !tbaa !26
  %8 = call noundef i32 @_ZN11mpz_managerILb0EE5mlog2ERK3mpz(ptr noundef nonnull align 8 dereferenceable(600) %6, ptr noundef nonnull align 8 dereferenceable(16) %7)
  ret i32 %8
}

; Function Attrs: mustprogress uwtable
define linkonce_odr hidden noundef i32 @_ZN13mpzzp_manager4log2ERK3mpz(ptr noundef nonnull align 8 dereferenceable(136) %0, ptr noundef nonnull align 8 dereferenceable(16) %1) #4 comdat align 2 {
  %3 = alloca ptr, align 8
  %4 = alloca ptr, align 8
  store ptr %0, ptr %3, align 8, !tbaa !31
  store ptr %1, ptr %4, align 8, !tbaa !26
  %5 = load ptr, ptr %3, align 8
  %6 = call noundef nonnull align 8 dereferenceable(600) ptr @_ZNK13mpzzp_manager1mEv(ptr noundef nonnull align 8 dereferenceable(136) %5)
  %7 = load ptr, ptr %4, align 8, !tbaa !26
  %8 = call noundef i32 @_ZN11mpz_managerILb0EE4log2ERK3mpz(ptr noundef nonnull align 8 dereferenceable(600) %6, ptr noundef nonnull align 8 dereferenceable(16) %7)
  ret i32 %8
}

; Function Attrs: mustprogress uwtable
define linkonce_odr hidden noundef zeroext i1 @_ZN13mpzzp_manager6is_posERK3mpz(ptr noundef nonnull align 8 dereferenceable(136) %0, ptr noundef nonnull align 8 dereferenceable(16) %1) #4 comdat align 2 {
  %3 = alloca ptr, align 8
  %4 = alloca ptr, align 8
  store ptr %0, ptr %3, align 8, !tbaa !31
  store ptr %1, ptr %4, align 8, !tbaa !26
  %5 = load ptr, ptr %4, align 8, !tbaa !26
  %6 = call noundef zeroext i1 @_ZN11mpz_managerILb0EE6is_posERK3mpz(ptr noundef nonnull align 8 dereferenceable(16) %5)
  ret i1 %6
}

; Function Attrs: mustprogress nounwind uwtable
define linkonce_odr hidden noundef nonnull align 8 dereferenceable(136) ptr @_ZNK11upolynomial12core_manager1mEv(ptr noundef nonnull align 8 dereferenceable(272) %0) #5 comdat align 2 {
  %2 = alloca ptr, align 8
  store ptr %0, ptr %2, align 8, !tbaa !8
  %3 = load ptr, ptr %2, align 8
  %4 = getelementptr inbounds nuw %"class.upolynomial::core_manager", ptr %3, i32 0, i32 1
  ret ptr %4
}

; Function Attrs: mustprogress uwtable
define hidden noundef i32 @_ZN11upolynomial7manager31knuth_positive_root_upper_boundEjPK3mpz(ptr noundef nonnull align 8 dereferenceable(312) %0, i32 noundef %1, ptr noundef %2) #4 align 2 {
  %4 = alloca i32, align 4
  %5 = alloca ptr, align 8
  %6 = alloca i32, align 4
  %7 = alloca ptr, align 8
  %8 = alloca i32, align 4
  %9 = alloca i32, align 4
  %10 = alloca i8, align 1
  %11 = alloca i32, align 4
  %12 = alloca i32, align 4
  %13 = alloca i32, align 4
  %14 = alloca ptr, align 8
  %15 = alloca i8, align 1
  %16 = alloca i32, align 4
  %17 = alloca i32, align 4
  store ptr %0, ptr %5, align 8, !tbaa !144
  store i32 %1, ptr %6, align 4, !tbaa !33
  store ptr %2, ptr %7, align 8, !tbaa !26
  %18 = load ptr, ptr %5, align 8
  %19 = load i32, ptr %6, align 4, !tbaa !33
  %20 = icmp eq i32 %19, 0
  br i1 %20, label %21, label %22

21:                                               ; preds = %3
  store i32 0, ptr %4, align 4
  br label %133

22:                                               ; preds = %3
  call void @llvm.lifetime.start.p0(i64 4, ptr %8) #3
  store i32 0, ptr %8, align 4, !tbaa !33
  call void @llvm.lifetime.start.p0(i64 4, ptr %9) #3
  %23 = load i32, ptr %6, align 4, !tbaa !33
  %24 = sub i32 %23, 1
  store i32 %24, ptr %9, align 4, !tbaa !33
  call void @llvm.lifetime.start.p0(i64 1, ptr %10) #3
  %25 = call noundef nonnull align 8 dereferenceable(136) ptr @_ZNK11upolynomial12core_manager1mEv(ptr noundef nonnull align 8 dereferenceable(272) %18)
  %26 = load ptr, ptr %7, align 8, !tbaa !26
  %27 = load i32, ptr %9, align 4, !tbaa !33
  %28 = zext i32 %27 to i64
  %29 = getelementptr inbounds nuw %class.mpz, ptr %26, i64 %28
  %30 = call noundef zeroext i1 @_ZN13mpzzp_manager6is_posERK3mpz(ptr noundef nonnull align 8 dereferenceable(136) %25, ptr noundef nonnull align 8 dereferenceable(16) %29)
  %31 = zext i1 %30 to i8
  store i8 %31, ptr %10, align 1, !tbaa !126
  call void @llvm.lifetime.start.p0(i64 4, ptr %11) #3
  %32 = load i8, ptr %10, align 1, !tbaa !126, !range !78, !noundef !79
  %33 = trunc i8 %32 to i1
  br i1 %33, label %34, label %41

34:                                               ; preds = %22
  %35 = call noundef nonnull align 8 dereferenceable(136) ptr @_ZNK11upolynomial12core_manager1mEv(ptr noundef nonnull align 8 dereferenceable(272) %18)
  %36 = load ptr, ptr %7, align 8, !tbaa !26
  %37 = load i32, ptr %9, align 4, !tbaa !33
  %38 = zext i32 %37 to i64
  %39 = getelementptr inbounds nuw %class.mpz, ptr %36, i64 %38
  %40 = call noundef i32 @_ZN13mpzzp_manager4log2ERK3mpz(ptr noundef nonnull align 8 dereferenceable(136) %35, ptr noundef nonnull align 8 dereferenceable(16) %39)
  br label %48

41:                                               ; preds = %22
  %42 = call noundef nonnull align 8 dereferenceable(136) ptr @_ZNK11upolynomial12core_manager1mEv(ptr noundef nonnull align 8 dereferenceable(272) %18)
  %43 = load ptr, ptr %7, align 8, !tbaa !26
  %44 = load i32, ptr %9, align 4, !tbaa !33
  %45 = zext i32 %44 to i64
  %46 = getelementptr inbounds nuw %class.mpz, ptr %43, i64 %45
  %47 = call noundef i32 @_ZN13mpzzp_manager5mlog2ERK3mpz(ptr noundef nonnull align 8 dereferenceable(136) %42, ptr noundef nonnull align 8 dereferenceable(16) %46)
  br label %48

48:                                               ; preds = %41, %34
  %49 = phi i32 [ %40, %34 ], [ %47, %41 ]
  store i32 %49, ptr %11, align 4, !tbaa !33
  call void @llvm.lifetime.start.p0(i64 4, ptr %12) #3
  store i32 1, ptr %12, align 4, !tbaa !33
  br label %50

50:                                               ; preds = %127, %48
  %51 = load i32, ptr %12, align 4, !tbaa !33
  %52 = load i32, ptr %9, align 4, !tbaa !33
  %53 = icmp ule i32 %51, %52
  br i1 %53, label %55, label %54

54:                                               ; preds = %50
  store i32 2, ptr %13, align 4
  call void @llvm.lifetime.end.p0(i64 4, ptr %12) #3
  br label %130

55:                                               ; preds = %50
  call void @llvm.lifetime.start.p0(i64 8, ptr %14) #3
  %56 = load ptr, ptr %7, align 8, !tbaa !26
  %57 = load i32, ptr %9, align 4, !tbaa !33
  %58 = load i32, ptr %12, align 4, !tbaa !33
  %59 = sub i32 %57, %58
  %60 = zext i32 %59 to i64
  %61 = getelementptr inbounds nuw %class.mpz, ptr %56, i64 %60
  store ptr %61, ptr %14, align 8, !tbaa !26
  %62 = call noundef nonnull align 8 dereferenceable(136) ptr @_ZNK11upolynomial12core_manager1mEv(ptr noundef nonnull align 8 dereferenceable(272) %18)
  %63 = load ptr, ptr %14, align 8, !tbaa !26
  %64 = call noundef zeroext i1 @_ZN13mpzzp_manager7is_zeroERK3mpz(ptr noundef nonnull align 8 dereferenceable(136) %62, ptr noundef nonnull align 8 dereferenceable(16) %63)
  br i1 %64, label %65, label %66

65:                                               ; preds = %55
  store i32 4, ptr %13, align 4
  br label %124

66:                                               ; preds = %55
  call void @llvm.lifetime.start.p0(i64 1, ptr %15) #3
  %67 = call noundef nonnull align 8 dereferenceable(136) ptr @_ZNK11upolynomial12core_manager1mEv(ptr noundef nonnull align 8 dereferenceable(272) %18)
  %68 = load ptr, ptr %14, align 8, !tbaa !26
  %69 = call noundef zeroext i1 @_ZN13mpzzp_manager6is_posERK3mpz(ptr noundef nonnull align 8 dereferenceable(136) %67, ptr noundef nonnull align 8 dereferenceable(16) %68)
  %70 = zext i1 %69 to i8
  store i8 %70, ptr %15, align 1, !tbaa !126
  %71 = load i8, ptr %15, align 1, !tbaa !126, !range !78, !noundef !79
  %72 = trunc i8 %71 to i1
  %73 = zext i1 %72 to i32
  %74 = load i8, ptr %10, align 1, !tbaa !126, !range !78, !noundef !79
  %75 = trunc i8 %74 to i1
  %76 = zext i1 %75 to i32
  %77 = icmp eq i32 %73, %76
  br i1 %77, label %78, label %79

78:                                               ; preds = %66
  store i32 4, ptr %13, align 4
  br label %123

79:                                               ; preds = %66
  call void @llvm.lifetime.start.p0(i64 4, ptr %16) #3
  %80 = load i8, ptr %15, align 1, !tbaa !126, !range !78, !noundef !79
  %81 = trunc i8 %80 to i1
  br i1 %81, label %82, label %86

82:                                               ; preds = %79
  %83 = call noundef nonnull align 8 dereferenceable(136) ptr @_ZNK11upolynomial12core_manager1mEv(ptr noundef nonnull align 8 dereferenceable(272) %18)
  %84 = load ptr, ptr %14, align 8, !tbaa !26
  %85 = call noundef i32 @_ZN13mpzzp_manager4log2ERK3mpz(ptr noundef nonnull align 8 dereferenceable(136) %83, ptr noundef nonnull align 8 dereferenceable(16) %84)
  br label %90

86:                                               ; preds = %79
  %87 = call noundef nonnull align 8 dereferenceable(136) ptr @_ZNK11upolynomial12core_manager1mEv(ptr noundef nonnull align 8 dereferenceable(272) %18)
  %88 = load ptr, ptr %14, align 8, !tbaa !26
  %89 = call noundef i32 @_ZN13mpzzp_manager5mlog2ERK3mpz(ptr noundef nonnull align 8 dereferenceable(136) %87, ptr noundef nonnull align 8 dereferenceable(16) %88)
  br label %90

90:                                               ; preds = %86, %82
  %91 = phi i32 [ %85, %82 ], [ %89, %86 ]
  store i32 %91, ptr %16, align 4, !tbaa !33
  %92 = load i32, ptr %11, align 4, !tbaa !33
  %93 = load i32, ptr %16, align 4, !tbaa !33
  %94 = icmp ugt i32 %92, %93
  br i1 %94, label %95, label %96

95:                                               ; preds = %90
  store i32 4, ptr %13, align 4
  br label %122

96:                                               ; preds = %90
  call void @llvm.lifetime.start.p0(i64 4, ptr %17) #3
  %97 = load i32, ptr %16, align 4, !tbaa !33
  %98 = add i32 %97, 1
  %99 = load i32, ptr %11, align 4, !tbaa !33
  %100 = sub i32 %98, %99
  store i32 %100, ptr %17, align 4, !tbaa !33
  %101 = load i32, ptr %17, align 4, !tbaa !33
  %102 = load i32, ptr %12, align 4, !tbaa !33
  %103 = urem i32 %101, %102
  %104 = icmp eq i32 %103, 0
  br i1 %104, label %105, label %109

105:                                              ; preds = %96
  %106 = load i32, ptr %12, align 4, !tbaa !33
  %107 = load i32, ptr %17, align 4, !tbaa !33
  %108 = udiv i32 %107, %106
  store i32 %108, ptr %17, align 4, !tbaa !33
  br label %115

109:                                              ; preds = %96
  %110 = load i32, ptr %12, align 4, !tbaa !33
  %111 = load i32, ptr %17, align 4, !tbaa !33
  %112 = udiv i32 %111, %110
  store i32 %112, ptr %17, align 4, !tbaa !33
  %113 = load i32, ptr %17, align 4, !tbaa !33
  %114 = add i32 %113, 1
  store i32 %114, ptr %17, align 4, !tbaa !33
  br label %115

115:                                              ; preds = %109, %105
  %116 = load i32, ptr %17, align 4, !tbaa !33
  %117 = load i32, ptr %8, align 4, !tbaa !33
  %118 = icmp ugt i32 %116, %117
  br i1 %118, label %119, label %121

119:                                              ; preds = %115
  %120 = load i32, ptr %17, align 4, !tbaa !33
  store i32 %120, ptr %8, align 4, !tbaa !33
  br label %121

121:                                              ; preds = %119, %115
  call void @llvm.lifetime.end.p0(i64 4, ptr %17) #3
  store i32 0, ptr %13, align 4
  br label %122

122:                                              ; preds = %121, %95
  call void @llvm.lifetime.end.p0(i64 4, ptr %16) #3
  br label %123

123:                                              ; preds = %122, %78
  call void @llvm.lifetime.end.p0(i64 1, ptr %15) #3
  br label %124

124:                                              ; preds = %123, %65
  call void @llvm.lifetime.end.p0(i64 8, ptr %14) #3
  %125 = load i32, ptr %13, align 4
  switch i32 %125, label %135 [
    i32 0, label %126
    i32 4, label %127
  ]

126:                                              ; preds = %124
  br label %127

127:                                              ; preds = %126, %124
  %128 = load i32, ptr %12, align 4, !tbaa !33
  %129 = add i32 %128, 1
  store i32 %129, ptr %12, align 4, !tbaa !33
  br label %50, !llvm.loop !198

130:                                              ; preds = %54
  %131 = load i32, ptr %8, align 4, !tbaa !33
  %132 = add i32 %131, 1
  store i32 %132, ptr %4, align 4
  store i32 1, ptr %13, align 4
  call void @llvm.lifetime.end.p0(i64 4, ptr %11) #3
  call void @llvm.lifetime.end.p0(i64 1, ptr %10) #3
  call void @llvm.lifetime.end.p0(i64 4, ptr %9) #3
  call void @llvm.lifetime.end.p0(i64 4, ptr %8) #3
  br label %133

133:                                              ; preds = %130, %21
  %134 = load i32, ptr %4, align 4
  ret i32 %134

135:                                              ; preds = %124
  unreachable
}