; Function Attrs: mustprogress uwtable
define hidden noundef i32 @_ZN11upolynomial7manager31knuth_positive_root_upper_boundEjPK3mpz(ptr noundef nonnull readonly align 8 captures(none) dereferenceable(312) %0, i32 noundef %1, ptr noundef %2) local_unnamed_addr #3 align 2 {
  %4 = icmp eq i32 %1, 0
  br i1 %4, label %._crit_edge, label %5

5:                                                ; preds = %3
  %6 = add i32 %1, -1
  %7 = zext i32 %6 to i64
  %8 = getelementptr inbounds nuw %class.mpz, ptr %2, i64 %7
  %9 = load i32, ptr %8, align 8, !tbaa !8
  %10 = icmp sgt i32 %9, 0
  %11 = getelementptr inbounds nuw i8, ptr %0, i64 8
  %12 = load ptr, ptr %11, align 8, !tbaa !33
  br i1 %10, label %13, label %15

13:                                               ; preds = %5
  %14 = tail call noundef i32 @_ZN11mpz_managerILb0EE4log2ERK3mpz(ptr noundef nonnull align 8 dereferenceable(600) %12, ptr noundef nonnull align 8 dereferenceable(16) %8)
  br label %17

15:                                               ; preds = %5
  %16 = tail call noundef i32 @_ZN11mpz_managerILb0EE5mlog2ERK3mpz(ptr noundef nonnull align 8 dereferenceable(600) %12, ptr noundef nonnull align 8 dereferenceable(16) %8)
  br label %17

17:                                               ; preds = %15, %13
  %18 = phi i32 [ %14, %13 ], [ %16, %15 ]
  %.not45 = icmp eq i32 %6, 0
  br i1 %.not45, label %._crit_edge, label %.lr.ph

.lr.ph:                                           ; preds = %17
  %19 = getelementptr inbounds nuw i8, ptr %0, i64 8
  br label %21

._crit_edge.loopexit:                             ; preds = %45
  %20 = add i32 %.1, 1
  br label %._crit_edge

21:                                               ; preds = %.lr.ph, %45
  %indvars.iv = phi i64 [ 1, %.lr.ph ], [ %indvars.iv.next, %45 ]
  %.03947 = phi i32 [ 0, %.lr.ph ], [ %.1, %45 ]
  %22 = sub nuw nsw i64 %7, %indvars.iv
  %23 = getelementptr inbounds nuw %class.mpz, ptr %2, i64 %22
  %24 = load i32, ptr %23, align 8, !tbaa !8
  %25 = icmp eq i32 %24, 0
  br i1 %25, label %45, label %26

26:                                               ; preds = %21
  %27 = icmp sgt i32 %24, 0
  %28 = xor i1 %10, %27
  br i1 %28, label %29, label %45

29:                                               ; preds = %26
  %30 = load ptr, ptr %19, align 8, !tbaa !33
  br i1 %27, label %31, label %33

31:                                               ; preds = %29
  %32 = tail call noundef i32 @_ZN11mpz_managerILb0EE4log2ERK3mpz(ptr noundef nonnull align 8 dereferenceable(600) %30, ptr noundef nonnull align 8 dereferenceable(16) %23)
  br label %35

33:                                               ; preds = %29
  %34 = tail call noundef i32 @_ZN11mpz_managerILb0EE5mlog2ERK3mpz(ptr noundef nonnull align 8 dereferenceable(600) %30, ptr noundef nonnull align 8 dereferenceable(16) %23)
  br label %35

35:                                               ; preds = %33, %31
  %36 = phi i32 [ %32, %31 ], [ %34, %33 ]
  %37 = icmp ugt i32 %18, %36
  br i1 %37, label %45, label %38

38:                                               ; preds = %35
  %reass.sub = sub nuw i32 %36, %18
  %39 = add i32 %reass.sub, 1
  %40 = trunc nuw i64 %indvars.iv to i32
  %41 = urem i32 %39, %40
  %42 = icmp ne i32 %41, 0
  %43 = udiv i32 %39, %40
  %44 = zext i1 %42 to i32
  %.0 = add i32 %43, %44
  %spec.select = tail call i32 @llvm.umax.i32(i32 %.0, i32 %.03947)
  br label %45

45:                                               ; preds = %26, %35, %38, %21
  %.1 = phi i32 [ %.03947, %21 ], [ %.03947, %26 ], [ %spec.select, %38 ], [ %.03947, %35 ]
  %indvars.iv.next = add nuw nsw i64 %indvars.iv, 1
  %lftr.wideiv = trunc i64 %indvars.iv.next to i32
  %exitcond.not = icmp eq i32 %1, %lftr.wideiv
  br i1 %exitcond.not, label %._crit_edge.loopexit, label %21, !llvm.loop !184

._crit_edge:                                      ; preds = %17, %._crit_edge.loopexit, %3
  %.038 = phi i32 [ 0, %3 ], [ 1, %17 ], [ %20, %._crit_edge.loopexit ]
  ret i32 %.038
}